; Function Attrs: mustprogress nofree norecurse nosync nounwind willreturn memory(read, inaccessiblemem: none) uwtable
define hidden noundef zeroext i1 @_ZNK4cvc58internal11NodeBuilder20nvNeedsToBeAllocatedEv(ptr nocapture noundef nonnull readonly align 8 dereferenceable(116) %this) local_unnamed_addr #8 align 2 {
entry:
  %d_nv = getelementptr inbounds i8, ptr %this, i64 96
  %0 = load ptr, ptr %d_nv, align 8
  %d_nchildren = getelementptr inbounds i8, ptr %0, i64 12
  %bf.load = load i32, ptr %d_nchildren, align 4
  %bf.clear = and i32 %bf.load, 67108863
  %d_nvMaxChildren = getelementptr inbounds i8, ptr %this, i64 112
  %1 = load i32, ptr %d_nvMaxChildren, align 8
  %cmp = icmp eq i32 %bf.clear, %1
  ret i1 %cmp
}